(dp0
S'en_CA'
p1
(idictools
DictInfo
p2
(dp3
S'url'
p4
Vhttp://cgit.freedesktop.org/libreoffice/dictionaries/plain/dictionaries/en/hyph_en_GB.dic
p5
sS'locales'
p6
(lp7
S'en_GB'
p8
aS'en_ZA'
p9
aS'en_NA'
p10
aS'en_ZW'
p11
aS'en_AU'
p12
ag1
aS'en_IE'
p13
aS'en_IN'
p14
aS'en_BZ'
p15
aS'en_BS'
p16
aS'en_GH'
p17
aS'en_JM'
p18
aS'en_MW'
p19
aS'en_NZ'
p20
aS'en_TT'
p21
asS'filepath'
p22
V./hyph_en_GB.dic
p23
sbsS'en_PH'
p24
(idictools
DictInfo
p25
(dp26
g4
Vhttp://cgit.freedesktop.org/libreoffice/dictionaries/plain/dictionaries/en/hyph_en_US.dic
p27
sg6
(lp28
S'en_US'
p29
ag24
asg22
V./hyph_en_US.dic
p30
sbsg21
g2
sg10
g2
sg19
g2
sg9
g2
sg12
g2
sg20
g2
sg18
g2
sg16
g2
sg29
g25
sg13
g2
sg11
g2
sg17
g2
sg14
g2
sg15
g2
sg8
g2
s.